target datalayout = "e-m:e-p270:32:32-p271:32:32-p272:64:64-i64:64-i128:128-f80:128-n8:16:32:64-S128"
target triple = "x86_64-pc-linux-gnu"

%struct.jpeg_decompress_struct = type { ptr, ptr, ptr, ptr, i32, i32, ptr, i32, i32, i32, i32, i32, i32, i32, double, i32, i32, i32, i32, i32, i32, i32, i32, i32, i32, i32, i32, i32, i32, i32, i32, i32, i32, ptr, i32, i32, i32, i32, i32, ptr, [4 x ptr], [4 x ptr], [4 x ptr], i32, ptr, i32, i32, [16 x i8], [16 x i8], [16 x i8], i32, i32, i8, i8, i8, i16, i16, i32, i8, i32, ptr, i32, i32, i32, i32, ptr, i32, [4 x ptr], i32, i32, i32, [10 x i32], i32, i32, i32, i32, i32, ptr, ptr, ptr, ptr, ptr, ptr, ptr, ptr, ptr, ptr, ptr }

@dither_matrix = internal constant [4 x i64] [i64 524810, i64 201592326, i64 51052809, i64 252120325], align 16

; Function Attrs: nounwind uwtable
define internal void @gray_rgb565D_convert(ptr noundef %0, ptr noundef %1, i32 noundef %2, ptr noundef %3, i32 noundef %4) #0 {
  %6 = alloca ptr, align 8
  %7 = alloca ptr, align 8
  %8 = alloca i32, align 4
  %9 = alloca ptr, align 8
  %10 = alloca i32, align 4
  %11 = alloca ptr, align 8
  %12 = alloca ptr, align 8
  %13 = alloca i32, align 4
  %14 = alloca ptr, align 8
  %15 = alloca i32, align 4
  %16 = alloca i64, align 8
  %17 = alloca i64, align 8
  %18 = alloca i32, align 4
  %19 = alloca ptr, align 8
  %20 = alloca ptr, align 8
  %21 = alloca i32, align 4
  %22 = alloca ptr, align 8
  %23 = alloca i32, align 4
  %24 = alloca ptr, align 8
  %25 = alloca ptr, align 8
  %26 = alloca i32, align 4
  %27 = alloca ptr, align 8
  %28 = alloca i32, align 4
  %29 = alloca i64, align 8
  %30 = alloca i64, align 8
  %31 = alloca i32, align 4
  %32 = alloca i32, align 4
  %33 = alloca i32, align 4
  %34 = alloca ptr, align 8
  %35 = alloca ptr, align 8
  %36 = alloca i32, align 4
  %37 = alloca ptr, align 8
  %38 = alloca i32, align 4
  store ptr %0, ptr %34, align 8
  store ptr %1, ptr %35, align 8
  store i32 %2, ptr %36, align 4
  store ptr %3, ptr %37, align 8
  store i32 %4, ptr %38, align 4
  store i32 1, ptr %33, align 4
  %39 = load i8, ptr %33, align 4
  %40 = sext i8 %39 to i32
  %41 = icmp ne i32 %40, 1
  br i1 %41, label %42, label %43

42:                                               ; preds = %5
  store i32 1, ptr %32, align 4
  br label %44

43:                                               ; preds = %5
  store i32 0, ptr %32, align 4
  br label %44

44:                                               ; preds = %43, %42
  %45 = load i32, ptr %32, align 4
  %46 = icmp ne i32 %45, 0
  br i1 %46, label %47, label %241

47:                                               ; preds = %44
  %48 = load ptr, ptr %34, align 8
  %49 = load ptr, ptr %35, align 8
  %50 = load i32, ptr %36, align 4
  %51 = load ptr, ptr %37, align 8
  %52 = load i32, ptr %38, align 4
  store ptr %48, ptr %19, align 8
  store ptr %49, ptr %20, align 8
  store i32 %50, ptr %21, align 4
  store ptr %51, ptr %22, align 8
  store i32 %52, ptr %23, align 4
  %53 = load ptr, ptr %19, align 8
  %54 = getelementptr inbounds %struct.jpeg_decompress_struct, ptr %53, i32 0, i32 65
  %55 = load ptr, ptr %54, align 8
  store ptr %55, ptr %27, align 8
  %56 = load ptr, ptr %19, align 8
  %57 = getelementptr inbounds %struct.jpeg_decompress_struct, ptr %56, i32 0, i32 27
  %58 = load i32, ptr %57, align 8
  store i32 %58, ptr %28, align 4
  %59 = load ptr, ptr %19, align 8
  %60 = getelementptr inbounds %struct.jpeg_decompress_struct, ptr %59, i32 0, i32 34
  %61 = load i32, ptr %60, align 8
  %62 = and i32 %61, 3
  %63 = zext i32 %62 to i64
  %64 = getelementptr inbounds [4 x i64], ptr @dither_matrix, i64 0, i64 %63
  %65 = load i64, ptr %64, align 8
  store i64 %65, ptr %29, align 8
  br label %66

66:                                               ; preds = %239, %47
  %67 = load i32, ptr %23, align 4
  %68 = add nsw i32 %67, -1
  store i32 %68, ptr %23, align 4
  %69 = icmp sge i32 %68, 0
  br i1 %69, label %70, label %240

70:                                               ; preds = %66
  %71 = load ptr, ptr %20, align 8
  %72 = load ptr, ptr %71, align 8
  %73 = load i32, ptr %21, align 4
  %74 = add i32 %73, 1
  store i32 %74, ptr %21, align 4
  %75 = zext i32 %73 to i64
  %76 = getelementptr inbounds ptr, ptr %72, i64 %75
  %77 = load ptr, ptr %76, align 8
  store ptr %77, ptr %24, align 8
  %78 = load ptr, ptr %22, align 8
  %79 = getelementptr inbounds ptr, ptr %78, i32 1
  store ptr %79, ptr %22, align 8
  %80 = load ptr, ptr %78, align 8
  store ptr %80, ptr %25, align 8
  %81 = load ptr, ptr %25, align 8
  %82 = ptrtoint ptr %81 to i64
  %83 = and i64 %82, 3
  %84 = icmp ne i64 %83, 0
  br i1 %84, label %85, label %120

85:                                               ; preds = %70
  %86 = load ptr, ptr %24, align 8
  %87 = getelementptr inbounds i8, ptr %86, i32 1
  store ptr %87, ptr %24, align 8
  %88 = load i8, ptr %86, align 1
  %89 = zext i8 %88 to i32
  store i32 %89, ptr %31, align 4
  %90 = load ptr, ptr %27, align 8
  %91 = load i32, ptr %31, align 4
  %92 = zext i32 %91 to i64
  %93 = load i64, ptr %29, align 8
  %94 = and i64 %93, 255
  %95 = add nsw i64 %92, %94
  %96 = getelementptr inbounds i8, ptr %90, i64 %95
  %97 = load i8, ptr %96, align 1
  %98 = zext i8 %97 to i32
  store i32 %98, ptr %31, align 4
  %99 = load i32, ptr %31, align 4
  %100 = and i32 %99, 248
  %101 = load i32, ptr %31, align 4
  %102 = lshr i32 %101, 5
  %103 = or i32 %100, %102
  %104 = load i32, ptr %31, align 4
  %105 = shl i32 %104, 11
  %106 = and i32 %105, 57344
  %107 = or i32 %103, %106
  %108 = load i32, ptr %31, align 4
  %109 = shl i32 %108, 5
  %110 = and i32 %109, 7936
  %111 = or i32 %107, %110
  %112 = zext i32 %111 to i64
  store i64 %112, ptr %30, align 8
  %113 = load i64, ptr %30, align 8
  %114 = trunc i64 %113 to i16
  %115 = load ptr, ptr %25, align 8
  store i16 %114, ptr %115, align 2
  %116 = load ptr, ptr %25, align 8
  %117 = getelementptr inbounds i8, ptr %116, i64 2
  store ptr %117, ptr %25, align 8
  %118 = load i32, ptr %28, align 4
  %119 = add i32 %118, -1
  store i32 %119, ptr %28, align 4
  br label %120

120:                                              ; preds = %85, %70
  store i32 0, ptr %26, align 4
  br label %121

121:                                              ; preds = %126, %120
  %122 = load i32, ptr %26, align 4
  %123 = load i32, ptr %28, align 4
  %124 = lshr i32 %123, 1
  %125 = icmp ult i32 %122, %124
  br i1 %125, label %126, label %205

126:                                              ; preds = %121
  %127 = load ptr, ptr %24, align 8
  %128 = getelementptr inbounds i8, ptr %127, i32 1
  store ptr %128, ptr %24, align 8
  %129 = load i8, ptr %127, align 1
  %130 = zext i8 %129 to i32
  store i32 %130, ptr %31, align 4
  %131 = load ptr, ptr %27, align 8
  %132 = load i32, ptr %31, align 4
  %133 = zext i32 %132 to i64
  %134 = load i64, ptr %29, align 8
  %135 = and i64 %134, 255
  %136 = add nsw i64 %133, %135
  %137 = getelementptr inbounds i8, ptr %131, i64 %136
  %138 = load i8, ptr %137, align 1
  %139 = zext i8 %138 to i32
  store i32 %139, ptr %31, align 4
  %140 = load i32, ptr %31, align 4
  %141 = and i32 %140, 248
  %142 = load i32, ptr %31, align 4
  %143 = lshr i32 %142, 5
  %144 = or i32 %141, %143
  %145 = load i32, ptr %31, align 4
  %146 = shl i32 %145, 11
  %147 = and i32 %146, 57344
  %148 = or i32 %144, %147
  %149 = load i32, ptr %31, align 4
  %150 = shl i32 %149, 5
  %151 = and i32 %150, 7936
  %152 = or i32 %148, %151
  %153 = zext i32 %152 to i64
  store i64 %153, ptr %30, align 8
  %154 = load i64, ptr %29, align 8
  %155 = and i64 %154, 255
  %156 = shl i64 %155, 24
  %157 = load i64, ptr %29, align 8
  %158 = ashr i64 %157, 8
  %159 = and i64 %158, 16777215
  %160 = or i64 %156, %159
  store i64 %160, ptr %29, align 8
  %161 = load ptr, ptr %24, align 8
  %162 = getelementptr inbounds i8, ptr %161, i32 1
  store ptr %162, ptr %24, align 8
  %163 = load i8, ptr %161, align 1
  %164 = zext i8 %163 to i32
  store i32 %164, ptr %31, align 4
  %165 = load ptr, ptr %27, align 8
  %166 = load i32, ptr %31, align 4
  %167 = zext i32 %166 to i64
  %168 = load i64, ptr %29, align 8
  %169 = and i64 %168, 255
  %170 = add nsw i64 %167, %169
  %171 = getelementptr inbounds i8, ptr %165, i64 %170
  %172 = load i8, ptr %171, align 1
  %173 = zext i8 %172 to i32
  store i32 %173, ptr %31, align 4
  %174 = load i64, ptr %30, align 8
  %175 = shl i64 %174, 16
  %176 = load i32, ptr %31, align 4
  %177 = and i32 %176, 248
  %178 = load i32, ptr %31, align 4
  %179 = lshr i32 %178, 5
  %180 = or i32 %177, %179
  %181 = load i32, ptr %31, align 4
  %182 = shl i32 %181, 11
  %183 = and i32 %182, 57344
  %184 = or i32 %180, %183
  %185 = load i32, ptr %31, align 4
  %186 = shl i32 %185, 5
  %187 = and i32 %186, 7936
  %188 = or i32 %184, %187
  %189 = zext i32 %188 to i64
  %190 = or i64 %175, %189
  store i64 %190, ptr %30, align 8
  %191 = load i64, ptr %29, align 8
  %192 = and i64 %191, 255
  %193 = shl i64 %192, 24
  %194 = load i64, ptr %29, align 8
  %195 = ashr i64 %194, 8
  %196 = and i64 %195, 16777215
  %197 = or i64 %193, %196
  store i64 %197, ptr %29, align 8
  %198 = load i64, ptr %30, align 8
  %199 = trunc i64 %198 to i32
  %200 = load ptr, ptr %25, align 8
  store i32 %199, ptr %200, align 4
  %201 = load ptr, ptr %25, align 8
  %202 = getelementptr inbounds i8, ptr %201, i64 4
  store ptr %202, ptr %25, align 8
  %203 = load i32, ptr %26, align 4
  %204 = add i32 %203, 1
  store i32 %204, ptr %26, align 4
  br label %121, !llvm.loop !75

205:                                              ; preds = %121
  %206 = load i32, ptr %28, align 4
  %207 = and i32 %206, 1
  %208 = icmp ne i32 %207, 0
  br i1 %208, label %209, label %239

209:                                              ; preds = %205
  %210 = load ptr, ptr %24, align 8
  %211 = load i8, ptr %210, align 1
  %212 = zext i8 %211 to i32
  store i32 %212, ptr %31, align 4
  %213 = load ptr, ptr %27, align 8
  %214 = load i32, ptr %31, align 4
  %215 = zext i32 %214 to i64
  %216 = load i64, ptr %29, align 8
  %217 = and i64 %216, 255
  %218 = add nsw i64 %215, %217
  %219 = getelementptr inbounds i8, ptr %213, i64 %218
  %220 = load i8, ptr %219, align 1
  %221 = zext i8 %220 to i32
  store i32 %221, ptr %31, align 4
  %222 = load i32, ptr %31, align 4
  %223 = and i32 %222, 248
  %224 = load i32, ptr %31, align 4
  %225 = lshr i32 %224, 5
  %226 = or i32 %223, %225
  %227 = load i32, ptr %31, align 4
  %228 = shl i32 %227, 11
  %229 = and i32 %228, 57344
  %230 = or i32 %226, %229
  %231 = load i32, ptr %31, align 4
  %232 = shl i32 %231, 5
  %233 = and i32 %232, 7936
  %234 = or i32 %230, %233
  %235 = zext i32 %234 to i64
  store i64 %235, ptr %30, align 8
  %236 = load i64, ptr %30, align 8
  %237 = trunc i64 %236 to i16
  %238 = load ptr, ptr %25, align 8
  store i16 %237, ptr %238, align 2
  br label %239

239:                                              ; preds = %209, %205
  br label %66, !llvm.loop !76

240:                                              ; preds = %66
  br label %423

241:                                              ; preds = %44
  %242 = load ptr, ptr %34, align 8
  %243 = load ptr, ptr %35, align 8
  %244 = load i32, ptr %36, align 4
  %245 = load ptr, ptr %37, align 8
  %246 = load i32, ptr %38, align 4
  store ptr %242, ptr %6, align 8
  store ptr %243, ptr %7, align 8
  store i32 %244, ptr %8, align 4
  store ptr %245, ptr %9, align 8
  store i32 %246, ptr %10, align 4
  %247 = load ptr, ptr %6, align 8
  %248 = getelementptr inbounds %struct.jpeg_decompress_struct, ptr %247, i32 0, i32 65
  %249 = load ptr, ptr %248, align 8
  store ptr %249, ptr %14, align 8
  %250 = load ptr, ptr %6, align 8
  %251 = getelementptr inbounds %struct.jpeg_decompress_struct, ptr %250, i32 0, i32 27
  %252 = load i32, ptr %251, align 8
  store i32 %252, ptr %15, align 4
  %253 = load ptr, ptr %6, align 8
  %254 = getelementptr inbounds %struct.jpeg_decompress_struct, ptr %253, i32 0, i32 34
  %255 = load i32, ptr %254, align 8
  %256 = and i32 %255, 3
  %257 = zext i32 %256 to i64
  %258 = getelementptr inbounds [4 x i64], ptr @dither_matrix, i64 0, i64 %257
  %259 = load i64, ptr %258, align 8
  store i64 %259, ptr %16, align 8
  br label %260

260:                                              ; preds = %421, %241
  %261 = load i32, ptr %10, align 4
  %262 = add nsw i32 %261, -1
  store i32 %262, ptr %10, align 4
  %263 = icmp sge i32 %262, 0
  br i1 %263, label %264, label %422

264:                                              ; preds = %260
  %265 = load ptr, ptr %7, align 8
  %266 = load ptr, ptr %265, align 8
  %267 = load i32, ptr %8, align 4
  %268 = add i32 %267, 1
  store i32 %268, ptr %8, align 4
  %269 = zext i32 %267 to i64
  %270 = getelementptr inbounds ptr, ptr %266, i64 %269
  %271 = load ptr, ptr %270, align 8
  store ptr %271, ptr %11, align 8
  %272 = load ptr, ptr %9, align 8
  %273 = getelementptr inbounds ptr, ptr %272, i32 1
  store ptr %273, ptr %9, align 8
  %274 = load ptr, ptr %272, align 8
  store ptr %274, ptr %12, align 8
  %275 = load ptr, ptr %12, align 8
  %276 = ptrtoint ptr %275 to i64
  %277 = and i64 %276, 3
  %278 = icmp ne i64 %277, 0
  br i1 %278, label %279, label %311

279:                                              ; preds = %264
  %280 = load ptr, ptr %11, align 8
  %281 = getelementptr inbounds i8, ptr %280, i32 1
  store ptr %281, ptr %11, align 8
  %282 = load i8, ptr %280, align 1
  %283 = zext i8 %282 to i32
  store i32 %283, ptr %18, align 4
  %284 = load ptr, ptr %14, align 8
  %285 = load i32, ptr %18, align 4
  %286 = zext i32 %285 to i64
  %287 = load i64, ptr %16, align 8
  %288 = and i64 %287, 255
  %289 = add nsw i64 %286, %288
  %290 = getelementptr inbounds i8, ptr %284, i64 %289
  %291 = load i8, ptr %290, align 1
  %292 = zext i8 %291 to i32
  store i32 %292, ptr %18, align 4
  %293 = load i32, ptr %18, align 4
  %294 = shl i32 %293, 8
  %295 = and i32 %294, 63488
  %296 = load i32, ptr %18, align 4
  %297 = shl i32 %296, 3
  %298 = and i32 %297, 2016
  %299 = or i32 %295, %298
  %300 = load i32, ptr %18, align 4
  %301 = lshr i32 %300, 3
  %302 = or i32 %299, %301
  %303 = zext i32 %302 to i64
  store i64 %303, ptr %17, align 8
  %304 = load i64, ptr %17, align 8
  %305 = trunc i64 %304 to i16
  %306 = load ptr, ptr %12, align 8
  store i16 %305, ptr %306, align 2
  %307 = load ptr, ptr %12, align 8
  %308 = getelementptr inbounds i8, ptr %307, i64 2
  store ptr %308, ptr %12, align 8
  %309 = load i32, ptr %15, align 4
  %310 = add i32 %309, -1
  store i32 %310, ptr %15, align 4
  br label %311

311:                                              ; preds = %279, %264
  store i32 0, ptr %13, align 4
  br label %312

312:                                              ; preds = %317, %311
  %313 = load i32, ptr %13, align 4
  %314 = load i32, ptr %15, align 4
  %315 = lshr i32 %314, 1
  %316 = icmp ult i32 %313, %315
  br i1 %316, label %317, label %390

317:                                              ; preds = %312
  %318 = load ptr, ptr %11, align 8
  %319 = getelementptr inbounds i8, ptr %318, i32 1
  store ptr %319, ptr %11, align 8
  %320 = load i8, ptr %318, align 1
  %321 = zext i8 %320 to i32
  store i32 %321, ptr %18, align 4
  %322 = load ptr, ptr %14, align 8
  %323 = load i32, ptr %18, align 4
  %324 = zext i32 %323 to i64
  %325 = load i64, ptr %16, align 8
  %326 = and i64 %325, 255
  %327 = add nsw i64 %324, %326
  %328 = getelementptr inbounds i8, ptr %322, i64 %327
  %329 = load i8, ptr %328, align 1
  %330 = zext i8 %329 to i32
  store i32 %330, ptr %18, align 4
  %331 = load i32, ptr %18, align 4
  %332 = shl i32 %331, 8
  %333 = and i32 %332, 63488
  %334 = load i32, ptr %18, align 4
  %335 = shl i32 %334, 3
  %336 = and i32 %335, 2016
  %337 = or i32 %333, %336
  %338 = load i32, ptr %18, align 4
  %339 = lshr i32 %338, 3
  %340 = or i32 %337, %339
  %341 = zext i32 %340 to i64
  store i64 %341, ptr %17, align 8
  %342 = load i64, ptr %16, align 8
  %343 = and i64 %342, 255
  %344 = shl i64 %343, 24
  %345 = load i64, ptr %16, align 8
  %346 = ashr i64 %345, 8
  %347 = and i64 %346, 16777215
  %348 = or i64 %344, %347
  store i64 %348, ptr %16, align 8
  %349 = load ptr, ptr %11, align 8
  %350 = getelementptr inbounds i8, ptr %349, i32 1
  store ptr %350, ptr %11, align 8
  %351 = load i8, ptr %349, align 1
  %352 = zext i8 %351 to i32
  store i32 %352, ptr %18, align 4
  %353 = load ptr, ptr %14, align 8
  %354 = load i32, ptr %18, align 4
  %355 = zext i32 %354 to i64
  %356 = load i64, ptr %16, align 8
  %357 = and i64 %356, 255
  %358 = add nsw i64 %355, %357
  %359 = getelementptr inbounds i8, ptr %353, i64 %358
  %360 = load i8, ptr %359, align 1
  %361 = zext i8 %360 to i32
  store i32 %361, ptr %18, align 4
  %362 = load i32, ptr %18, align 4
  %363 = shl i32 %362, 8
  %364 = and i32 %363, 63488
  %365 = load i32, ptr %18, align 4
  %366 = shl i32 %365, 3
  %367 = and i32 %366, 2016
  %368 = or i32 %364, %367
  %369 = load i32, ptr %18, align 4
  %370 = lshr i32 %369, 3
  %371 = or i32 %368, %370
  %372 = shl i32 %371, 16
  %373 = zext i32 %372 to i64
  %374 = load i64, ptr %17, align 8
  %375 = or i64 %373, %374
  store i64 %375, ptr %17, align 8
  %376 = load i64, ptr %16, align 8
  %377 = and i64 %376, 255
  %378 = shl i64 %377, 24
  %379 = load i64, ptr %16, align 8
  %380 = ashr i64 %379, 8
  %381 = and i64 %380, 16777215
  %382 = or i64 %378, %381
  store i64 %382, ptr %16, align 8
  %383 = load i64, ptr %17, align 8
  %384 = trunc i64 %383 to i32
  %385 = load ptr, ptr %12, align 8
  store i32 %384, ptr %385, align 4
  %386 = load ptr, ptr %12, align 8
  %387 = getelementptr inbounds i8, ptr %386, i64 4
  store ptr %387, ptr %12, align 8
  %388 = load i32, ptr %13, align 4
  %389 = add i32 %388, 1
  store i32 %389, ptr %13, align 4
  br label %312, !llvm.loop !77

390:                                              ; preds = %312
  %391 = load i32, ptr %15, align 4
  %392 = and i32 %391, 1
  %393 = icmp ne i32 %392, 0
  br i1 %393, label %394, label %421

394:                                              ; preds = %390
  %395 = load ptr, ptr %11, align 8
  %396 = load i8, ptr %395, align 1
  %397 = zext i8 %396 to i32
  store i32 %397, ptr %18, align 4
  %398 = load ptr, ptr %14, align 8
  %399 = load i32, ptr %18, align 4
  %400 = zext i32 %399 to i64
  %401 = load i64, ptr %16, align 8
  %402 = and i64 %401, 255
  %403 = add nsw i64 %400, %402
  %404 = getelementptr inbounds i8, ptr %398, i64 %403
  %405 = load i8, ptr %404, align 1
  %406 = zext i8 %405 to i32
  store i32 %406, ptr %18, align 4
  %407 = load i32, ptr %18, align 4
  %408 = shl i32 %407, 8
  %409 = and i32 %408, 63488
  %410 = load i32, ptr %18, align 4
  %411 = shl i32 %410, 3
  %412 = and i32 %411, 2016
  %413 = or i32 %409, %412
  %414 = load i32, ptr %18, align 4
  %415 = lshr i32 %414, 3
  %416 = or i32 %413, %415
  %417 = zext i32 %416 to i64
  store i64 %417, ptr %17, align 8
  %418 = load i64, ptr %17, align 8
  %419 = trunc i64 %418 to i16
  %420 = load ptr, ptr %12, align 8
  store i16 %419, ptr %420, align 2
  br label %421

421:                                              ; preds = %394, %390
  br label %260, !llvm.loop !78

422:                                              ; preds = %260
  br label %423

423:                                              ; preds = %422, %240
  ret void
}