; Function Attrs: nofree norecurse nosync nounwind memory(readwrite, inaccessiblemem: none) uwtable
define internal void @gray_rgb565D_convert(ptr nocapture noundef readonly %0, ptr nocapture noundef readonly %1, i32 noundef %2, ptr nocapture noundef readonly %3, i32 noundef %4) #2 {
  %6 = getelementptr inbounds i8, ptr %0, i64 424
  %7 = load ptr, ptr %6, align 8
  %8 = icmp sgt i32 %4, 0
  br i1 %8, label %.lr.ph159.preheader, label %._crit_edge160

.lr.ph159.preheader:                              ; preds = %5
  %9 = getelementptr inbounds i8, ptr %0, i64 168
  %10 = load i32, ptr %9, align 8
  %11 = and i32 %10, 3
  %12 = zext nneg i32 %11 to i64
  %13 = getelementptr inbounds [4 x i64], ptr @dither_matrix, i64 0, i64 %12
  %14 = load i64, ptr %13, align 8
  %15 = getelementptr inbounds i8, ptr %0, i64 136
  %16 = load i32, ptr %15, align 8
  br label %.lr.ph159

.lr.ph159:                                        ; preds = %.lr.ph159.preheader, %104
  %.in = phi i32 [ %17, %104 ], [ %4, %.lr.ph159.preheader ]
  %.0157 = phi i32 [ %19, %104 ], [ %2, %.lr.ph159.preheader ]
  %.0122156 = phi ptr [ %23, %104 ], [ %3, %.lr.ph159.preheader ]
  %.0128155 = phi i32 [ %.1129, %104 ], [ %16, %.lr.ph159.preheader ]
  %.0135154 = phi i64 [ %.1136.lcssa, %104 ], [ %14, %.lr.ph159.preheader ]
  %17 = add nsw i32 %.in, -1
  %18 = load ptr, ptr %1, align 8
  %19 = add i32 %.0157, 1
  %20 = zext i32 %.0157 to i64
  %21 = getelementptr inbounds ptr, ptr %18, i64 %20
  %22 = load ptr, ptr %21, align 8
  %23 = getelementptr inbounds i8, ptr %.0122156, i64 8
  %24 = load ptr, ptr %.0122156, align 8
  %25 = ptrtoint ptr %24 to i64
  %26 = and i64 %25, 3
  %.not = icmp eq i64 %26, 0
  br i1 %.not, label %45, label %27

27:                                               ; preds = %.lr.ph159
  %28 = getelementptr inbounds i8, ptr %22, i64 1
  %29 = load i8, ptr %22, align 1
  %30 = zext i8 %29 to i64
  %31 = and i64 %.0135154, 255
  %32 = getelementptr inbounds i8, ptr %7, i64 %31
  %33 = getelementptr inbounds i8, ptr %32, i64 %30
  %34 = load i8, ptr %33, align 1
  %35 = zext i8 %34 to i16
  %36 = shl nuw i16 %35, 8
  %37 = and i16 %36, -2048
  %38 = shl nuw nsw i16 %35, 3
  %39 = and i16 %38, 2016
  %40 = lshr i16 %35, 3
  %41 = or disjoint i16 %39, %40
  %42 = or disjoint i16 %41, %37
  store i16 %42, ptr %24, align 2
  %43 = getelementptr inbounds i8, ptr %24, i64 2
  %44 = add i32 %.0128155, -1
  br label %45

45:                                               ; preds = %27, %.lr.ph159
  %.1129 = phi i32 [ %44, %27 ], [ %.0128155, %.lr.ph159 ]
  %.0125 = phi ptr [ %43, %27 ], [ %24, %.lr.ph159 ]
  %.0124 = phi ptr [ %28, %27 ], [ %22, %.lr.ph159 ]
  %46 = lshr i32 %.1129, 1
  %.not161 = icmp ult i32 %.1129, 2
  br i1 %.not161, label %._crit_edge, label %.lr.ph

.lr.ph:                                           ; preds = %45, %.lr.ph
  %.1151 = phi ptr [ %64, %.lr.ph ], [ %.0124, %45 ]
  %.1126150 = phi ptr [ %86, %.lr.ph ], [ %.0125, %45 ]
  %.0127149 = phi i32 [ %87, %.lr.ph ], [ 0, %45 ]
  %.1136148 = phi i64 [ %85, %.lr.ph ], [ %.0135154, %45 ]
  %47 = getelementptr inbounds i8, ptr %.1151, i64 1
  %48 = load i8, ptr %.1151, align 1
  %49 = zext i8 %48 to i64
  %50 = and i64 %.1136148, 255
  %51 = getelementptr inbounds i8, ptr %7, i64 %50
  %52 = getelementptr inbounds i8, ptr %51, i64 %49
  %53 = load i8, ptr %52, align 1
  %54 = zext i8 %53 to i32
  %55 = shl nuw nsw i32 %54, 8
  %56 = and i32 %55, 63488
  %57 = shl nuw nsw i32 %54, 3
  %58 = and i32 %57, 2016
  %59 = lshr i32 %54, 3
  %60 = shl nuw nsw i64 %50, 24
  %61 = lshr i64 %.1136148, 8
  %62 = and i64 %61, 16776960
  %63 = or disjoint i64 %60, %62
  %64 = getelementptr inbounds i8, ptr %.1151, i64 2
  %65 = load i8, ptr %47, align 1
  %66 = zext i8 %65 to i64
  %67 = and i64 %61, 255
  %68 = getelementptr inbounds i8, ptr %7, i64 %67
  %69 = getelementptr inbounds i8, ptr %68, i64 %66
  %70 = load i8, ptr %69, align 1
  %71 = zext i8 %70 to i32
  %72 = shl nuw nsw i32 %71, 8
  %73 = and i32 %72, 63488
  %74 = shl nuw nsw i32 %71, 3
  %75 = and i32 %74, 2016
  %76 = or disjoint i32 %73, %75
  %77 = lshr i32 %71, 3
  %78 = or disjoint i32 %76, %77
  %79 = shl nuw i32 %78, 16
  %80 = or disjoint i32 %58, %59
  %81 = or disjoint i32 %80, %56
  %82 = or disjoint i32 %81, %79
  %83 = shl nuw nsw i64 %67, 24
  %84 = lshr exact i64 %63, 8
  %85 = or disjoint i64 %84, %83
  store i32 %82, ptr %.1126150, align 4
  %86 = getelementptr inbounds i8, ptr %.1126150, i64 4
  %87 = add nuw nsw i32 %.0127149, 1
  %exitcond.not = icmp eq i32 %87, %46
  br i1 %exitcond.not, label %._crit_edge, label %.lr.ph, !llvm.loop !67

._crit_edge:                                      ; preds = %.lr.ph, %45
  %.1136.lcssa = phi i64 [ %.0135154, %45 ], [ %85, %.lr.ph ]
  %.1126.lcssa = phi ptr [ %.0125, %45 ], [ %86, %.lr.ph ]
  %.1.lcssa = phi ptr [ %.0124, %45 ], [ %64, %.lr.ph ]
  %88 = and i32 %.1129, 1
  %.not147 = icmp eq i32 %88, 0
  br i1 %.not147, label %104, label %89

89:                                               ; preds = %._crit_edge
  %90 = load i8, ptr %.1.lcssa, align 1
  %91 = zext i8 %90 to i64
  %92 = and i64 %.1136.lcssa, 255
  %93 = getelementptr inbounds i8, ptr %7, i64 %92
  %94 = getelementptr inbounds i8, ptr %93, i64 %91
  %95 = load i8, ptr %94, align 1
  %96 = zext i8 %95 to i16
  %97 = shl nuw i16 %96, 8
  %98 = and i16 %97, -2048
  %99 = shl nuw nsw i16 %96, 3
  %100 = and i16 %99, 2016
  %101 = lshr i16 %96, 3
  %102 = or disjoint i16 %100, %101
  %103 = or disjoint i16 %102, %98
  store i16 %103, ptr %.1126.lcssa, align 2
  br label %104

104:                                              ; preds = %89, %._crit_edge
  %105 = icmp sgt i32 %.in, 1
  br i1 %105, label %.lr.ph159, label %._crit_edge160, !llvm.loop !68

._crit_edge160:                                   ; preds = %104, %5
  ret void
}